; Function Attrs: mustprogress uwtable
define hidden noundef nonnull align 8 dereferenceable(24) ptr @_ZN7counter5countEjPKji(ptr noundef nonnull returned align 8 dereferenceable(24) %this, i32 noundef %sz, ptr nocapture noundef readonly %els, i32 noundef %delta) local_unnamed_addr #3 align 2 {
entry:
  %temp.i.i.i.i.i = alloca %struct._key_data, align 8
  %et.i.i.i.i = alloca ptr, align 8
  %cmp3.not = icmp eq i32 %sz, 0
  br i1 %cmp3.not, label %for.end, label %for.body.preheader

for.body.preheader:                               ; preds = %entry
  %wide.trip.count = zext i32 %sz to i64
  br label %for.body

for.body:                                         ; preds = %for.body.preheader, %for.body
  %indvars.iv = phi i64 [ 0, %for.body.preheader ], [ %indvars.iv.next, %for.body ]
  %arrayidx = getelementptr inbounds i32, ptr %els, i64 %indvars.iv
  %0 = load i32, ptr %arrayidx, align 4
  call void @llvm.lifetime.start.p0(i64 8, ptr nonnull %et.i.i.i.i)
  call void @llvm.lifetime.start.p0(i64 8, ptr nonnull %temp.i.i.i.i.i)
  %ref.tmp.sroa.0.0.insert.ext.i.i.i = zext i32 %0 to i64
  store i64 %ref.tmp.sroa.0.0.insert.ext.i.i.i, ptr %temp.i.i.i.i.i, align 8
  %call.i.i.i.i.i = call noundef zeroext i1 @_ZN14core_hashtableI17default_map_entryIjiEN9table2mapIS1_6u_hash4u_eqE15entry_hash_procENS5_13entry_eq_procEE24insert_if_not_there_coreEO9_key_dataIjiERPS1_(ptr noundef nonnull align 8 dereferenceable(20) %this, ptr noundef nonnull align 4 dereferenceable(8) %temp.i.i.i.i.i, ptr noundef nonnull align 8 dereferenceable(8) %et.i.i.i.i)
  call void @llvm.lifetime.end.p0(i64 8, ptr nonnull %temp.i.i.i.i.i)
  %1 = load ptr, ptr %et.i.i.i.i, align 8
  call void @llvm.lifetime.end.p0(i64 8, ptr nonnull %et.i.i.i.i)
  %m_value.i.i.i = getelementptr inbounds i8, ptr %1, i64 12
  %2 = load i32, ptr %m_value.i.i.i, align 4
  %add.i = add nsw i32 %2, %delta
  store i32 %add.i, ptr %m_value.i.i.i, align 4
  %indvars.iv.next = add nuw nsw i64 %indvars.iv, 1
  %exitcond.not = icmp eq i64 %indvars.iv.next, %wide.trip.count
  br i1 %exitcond.not, label %for.end, label %for.body, !llvm.loop !4

for.end:                                          ; preds = %for.body, %entry
  ret ptr %this
}